target datalayout = "e-m:e-p270:32:32-p271:32:32-p272:64:64-i64:64-i128:128-f80:128-n8:16:32:64-S128"
target triple = "x86_64-pc-linux-gnu"

%struct._zval_struct = type { %union._zend_value, %union.anon, %union.anon.2 }
%union._zend_value = type { i64 }
%union.anon = type { i32 }
%union.anon.2 = type { i32 }
%struct._zend_array = type { %struct._zend_refcounted_h, %union.anon.4, i32, %union.anon.6, i32, i32, i32, i32, i64, ptr }
%struct._zend_refcounted_h = type { i32, %union.anon.3 }
%union.anon.3 = type { i32 }
%union.anon.4 = type { i32 }
%union.anon.6 = type { ptr }
%struct._zend_llist = type { ptr, ptr, i64, i64, ptr, i8, ptr }
%struct._sapi_globals_struct = type { ptr, %struct.sapi_request_info, %struct.sapi_headers_struct, i64, i8, i8, %struct.stat, ptr, ptr, ptr, i64, i32, i8, double, %struct._zend_array, %struct._zval_struct, %struct._zend_fcall_info_cache, %struct.sapi_request_parse_body_context }
%struct.sapi_request_info = type { ptr, ptr, ptr, i64, ptr, ptr, ptr, ptr, i8, i8, i8, ptr, ptr, ptr, ptr, ptr, ptr, ptr, i32, i32, ptr, i32 }
%struct.sapi_headers_struct = type { %struct._zend_llist, i32, i8, ptr, ptr }
%struct.stat = type { i64, i64, i64, i32, i32, i32, i32, i64, i64, i64, i64, %struct.timespec, %struct.timespec, %struct.timespec, [3 x i64] }
%struct.timespec = type { i64, i64 }
%struct._zend_fcall_info_cache = type { ptr, ptr, ptr, ptr, ptr }
%struct.sapi_request_parse_body_context = type { i8, [5 x %struct.anon.8] }
%struct.anon.8 = type { i8, i64 }
%struct._zend_string = type { %struct._zend_refcounted_h, i64, i64, [1 x i8] }
%struct.post_var_data = type { %struct.smart_str, ptr, ptr, i64, i64 }
%struct.smart_str = type { ptr, i64 }

@sapi_globals = external global %struct._sapi_globals_struct, align 8

; Function Attrs: nounwind uwtable
define void @php_std_post_handler(ptr noundef %0, ptr noundef %1) #0 {
  %3 = alloca ptr, align 8
  %4 = alloca i32, align 4
  %5 = alloca ptr, align 8
  %6 = alloca i8, align 1
  %7 = alloca ptr, align 8
  %8 = alloca i8, align 1
  %9 = alloca ptr, align 8
  %10 = alloca i32, align 4
  %11 = alloca ptr, align 8
  %12 = alloca i8, align 1
  %13 = alloca ptr, align 8
  %14 = alloca i8, align 1
  %15 = alloca ptr, align 8
  %16 = alloca i64, align 8
  %17 = alloca i8, align 1
  %18 = alloca ptr, align 8
  %19 = alloca ptr, align 8
  %20 = alloca i64, align 8
  %21 = alloca i8, align 1
  %22 = alloca i64, align 8
  %23 = alloca ptr, align 8
  %24 = alloca ptr, align 8
  %25 = alloca ptr, align 8
  %26 = alloca ptr, align 8
  %27 = alloca i64, align 8
  %28 = alloca ptr, align 8
  %29 = alloca ptr, align 8
  %30 = alloca ptr, align 8
  %31 = alloca ptr, align 8
  %32 = alloca %struct.post_var_data, align 8
  %33 = alloca [8192 x i8], align 16
  %34 = alloca i64, align 8
  store ptr %0, ptr %28, align 8
  store ptr %1, ptr %29, align 8
  %35 = load ptr, ptr %29, align 8
  store ptr %35, ptr %30, align 8
  %36 = load ptr, ptr getelementptr inbounds (%struct._sapi_globals_struct, ptr @sapi_globals, i32 0, i32 1, i32 6), align 8
  store ptr %36, ptr %31, align 8
  %37 = load ptr, ptr %31, align 8
  %38 = icmp ne ptr %37, null
  br i1 %38, label %39, label %211

39:                                               ; preds = %2
  %40 = load ptr, ptr %31, align 8
  %41 = call i32 @_php_stream_seek(ptr noundef %40, i64 noundef 0, i32 noundef 0)
  %42 = icmp eq i32 0, %41
  br i1 %42, label %43, label %211

43:                                               ; preds = %39
  call void @llvm.memset.p0.i64(ptr align 8 %32, i8 0, i64 48, i1 false)
  br label %44

44:                                               ; preds = %160, %43
  %45 = load ptr, ptr %31, align 8
  %46 = call zeroext i1 @_php_stream_eof(ptr noundef %45)
  %47 = xor i1 %46, true
  br i1 %47, label %48, label %161

48:                                               ; preds = %44
  call void @llvm.memset.p0.i64(ptr align 16 %33, i8 0, i64 8192, i1 false)
  %49 = load ptr, ptr %31, align 8
  %50 = getelementptr inbounds [8192 x i8], ptr %33, i64 0, i64 0
  %51 = call i64 @_php_stream_read(ptr noundef %49, ptr noundef %50, i64 noundef 8192)
  store i64 %51, ptr %34, align 8
  %52 = load i64, ptr %34, align 8
  %53 = icmp sgt i64 %52, 0
  br i1 %53, label %54, label %156

54:                                               ; preds = %48
  %55 = getelementptr inbounds %struct.post_var_data, ptr %32, i32 0, i32 0
  %56 = getelementptr inbounds [8192 x i8], ptr %33, i64 0, i64 0
  %57 = load i64, ptr %34, align 8
  store ptr %55, ptr %25, align 8
  store ptr %56, ptr %26, align 8
  store i64 %57, ptr %27, align 8
  %58 = load ptr, ptr %25, align 8
  %59 = load ptr, ptr %26, align 8
  %60 = load i64, ptr %27, align 8
  store ptr %58, ptr %18, align 8
  store ptr %59, ptr %19, align 8
  store i64 %60, ptr %20, align 8
  store i8 0, ptr %21, align 1
  %61 = load ptr, ptr %18, align 8
  %62 = load i64, ptr %20, align 8
  %63 = load i8, ptr %21, align 1
  %64 = trunc i8 %63 to i1
  store ptr %61, ptr %15, align 8
  store i64 %62, ptr %16, align 8
  %65 = zext i1 %64 to i8
  store i8 %65, ptr %17, align 1
  %66 = load ptr, ptr %15, align 8
  %67 = load ptr, ptr %66, align 8
  %68 = icmp ne ptr %67, null
  %69 = xor i1 %68, true
  br i1 %69, label %70, label %71

70:                                               ; preds = %54
  br label %84

71:                                               ; preds = %54
  %72 = load ptr, ptr %15, align 8
  %73 = load ptr, ptr %72, align 8
  %74 = getelementptr inbounds %struct._zend_string, ptr %73, i32 0, i32 2
  %75 = load i64, ptr %74, align 8
  %76 = load i64, ptr %16, align 8
  %77 = add i64 %76, %75
  store i64 %77, ptr %16, align 8
  %78 = load i64, ptr %16, align 8
  %79 = load ptr, ptr %15, align 8
  %80 = getelementptr inbounds %struct.smart_str, ptr %79, i32 0, i32 1
  %81 = load i64, ptr %80, align 8
  %82 = icmp uge i64 %78, %81
  br i1 %82, label %83, label %94

83:                                               ; preds = %71
  br label %84

84:                                               ; preds = %83, %70
  %85 = load i8, ptr %17, align 1
  %86 = trunc i8 %85 to i1
  br i1 %86, label %87, label %90

87:                                               ; preds = %84
  %88 = load ptr, ptr %15, align 8
  %89 = load i64, ptr %16, align 8
  call void @smart_str_realloc(ptr noundef %88, i64 noundef %89) #13
  br label %93

90:                                               ; preds = %84
  %91 = load ptr, ptr %15, align 8
  %92 = load i64, ptr %16, align 8
  call void @smart_str_erealloc(ptr noundef %91, i64 noundef %92) #13
  br label %93

93:                                               ; preds = %90, %87
  br label %94

94:                                               ; preds = %93, %71
  %95 = load i64, ptr %16, align 8
  store i64 %95, ptr %22, align 8
  %96 = load ptr, ptr %18, align 8
  %97 = load ptr, ptr %96, align 8
  %98 = getelementptr inbounds %struct._zend_string, ptr %97, i32 0, i32 3
  %99 = load ptr, ptr %18, align 8
  %100 = load ptr, ptr %99, align 8
  %101 = getelementptr inbounds %struct._zend_string, ptr %100, i32 0, i32 2
  %102 = load i64, ptr %101, align 8
  %103 = getelementptr inbounds i8, ptr %98, i64 %102
  %104 = load ptr, ptr %19, align 8
  %105 = load i64, ptr %20, align 8
  call void @llvm.memcpy.p0.p0.i64(ptr align 1 %103, ptr align 1 %104, i64 %105, i1 false)
  %106 = load i64, ptr %22, align 8
  %107 = load ptr, ptr %18, align 8
  %108 = load ptr, ptr %107, align 8
  %109 = getelementptr inbounds %struct._zend_string, ptr %108, i32 0, i32 2
  store i64 %106, ptr %109, align 8
  %110 = load ptr, ptr %30, align 8
  %111 = call i32 @add_post_vars(ptr noundef %110, ptr noundef %32, i1 noundef zeroext false)
  %112 = icmp ne i32 0, %111
  br i1 %112, label %113, label %155

113:                                              ; preds = %94
  %114 = getelementptr inbounds %struct.post_var_data, ptr %32, i32 0, i32 0
  store ptr %114, ptr %23, align 8
  %115 = load ptr, ptr %23, align 8
  store ptr %115, ptr %13, align 8
  store i8 0, ptr %14, align 1
  %116 = load ptr, ptr %13, align 8
  %117 = load ptr, ptr %116, align 8
  %118 = icmp ne ptr %117, null
  br i1 %118, label %119, label %152

119:                                              ; preds = %113
  %120 = load ptr, ptr %13, align 8
  %121 = load ptr, ptr %120, align 8
  %122 = load i8, ptr %14, align 1
  %123 = trunc i8 %122 to i1
  store ptr %121, ptr %11, align 8
  %124 = zext i1 %123 to i8
  store i8 %124, ptr %12, align 1
  %125 = load ptr, ptr %11, align 8
  %126 = getelementptr inbounds %struct._zend_refcounted_h, ptr %125, i32 0, i32 1
  %127 = load i32, ptr %126, align 4
  store i32 %127, ptr %10, align 4
  %128 = load i32, ptr %10, align 4
  %129 = and i32 %128, 1008
  %130 = and i32 %129, 64
  %131 = icmp ne i32 %130, 0
  br i1 %131, label %150, label %132

132:                                              ; preds = %119
  %133 = load ptr, ptr %11, align 8
  store ptr %133, ptr %9, align 8
  %134 = load ptr, ptr %9, align 8
  %135 = load i32, ptr %134, align 4
  %136 = icmp ugt i32 %135, 0
  call void @llvm.assume(i1 %136)
  %137 = load ptr, ptr %9, align 8
  %138 = load i32, ptr %137, align 4
  %139 = add i32 %138, -1
  store i32 %139, ptr %137, align 4
  %140 = icmp eq i32 %139, 0
  br i1 %140, label %141, label %149

141:                                              ; preds = %132
  %142 = load i8, ptr %12, align 1
  %143 = trunc i8 %142 to i1
  br i1 %143, label %144, label %146

144:                                              ; preds = %141
  %145 = load ptr, ptr %11, align 8
  call void @free(ptr noundef %145) #13
  br label %148

146:                                              ; preds = %141
  %147 = load ptr, ptr %11, align 8
  call void @_efree(ptr noundef %147) #13
  br label %148

148:                                              ; preds = %146, %144
  br label %149

149:                                              ; preds = %148, %132
  br label %150

150:                                              ; preds = %149, %119
  %151 = load ptr, ptr %13, align 8
  store ptr null, ptr %151, align 8
  br label %152

152:                                              ; preds = %150, %113
  %153 = load ptr, ptr %13, align 8
  %154 = getelementptr inbounds %struct.smart_str, ptr %153, i32 0, i32 1
  store i64 0, ptr %154, align 8
  br label %211

155:                                              ; preds = %94
  br label %156

156:                                              ; preds = %155, %48
  %157 = load i64, ptr %34, align 8
  %158 = icmp ne i64 %157, 8192
  br i1 %158, label %159, label %160

159:                                              ; preds = %156
  br label %161

160:                                              ; preds = %156
  br label %44

161:                                              ; preds = %159, %44
  %162 = getelementptr inbounds %struct.post_var_data, ptr %32, i32 0, i32 0
  %163 = getelementptr inbounds %struct.smart_str, ptr %162, i32 0, i32 0
  %164 = load ptr, ptr %163, align 8
  %165 = icmp ne ptr %164, null
  br i1 %165, label %166, label %210

166:                                              ; preds = %161
  %167 = load ptr, ptr %30, align 8
  %168 = call i32 @add_post_vars(ptr noundef %167, ptr noundef %32, i1 noundef zeroext true)
  %169 = getelementptr inbounds %struct.post_var_data, ptr %32, i32 0, i32 0
  store ptr %169, ptr %24, align 8
  %170 = load ptr, ptr %24, align 8
  store ptr %170, ptr %7, align 8
  store i8 0, ptr %8, align 1
  %171 = load ptr, ptr %7, align 8
  %172 = load ptr, ptr %171, align 8
  %173 = icmp ne ptr %172, null
  br i1 %173, label %174, label %207

174:                                              ; preds = %166
  %175 = load ptr, ptr %7, align 8
  %176 = load ptr, ptr %175, align 8
  %177 = load i8, ptr %8, align 1
  %178 = trunc i8 %177 to i1
  store ptr %176, ptr %5, align 8
  %179 = zext i1 %178 to i8
  store i8 %179, ptr %6, align 1
  %180 = load ptr, ptr %5, align 8
  %181 = getelementptr inbounds %struct._zend_refcounted_h, ptr %180, i32 0, i32 1
  %182 = load i32, ptr %181, align 4
  store i32 %182, ptr %4, align 4
  %183 = load i32, ptr %4, align 4
  %184 = and i32 %183, 1008
  %185 = and i32 %184, 64
  %186 = icmp ne i32 %185, 0
  br i1 %186, label %205, label %187

187:                                              ; preds = %174
  %188 = load ptr, ptr %5, align 8
  store ptr %188, ptr %3, align 8
  %189 = load ptr, ptr %3, align 8
  %190 = load i32, ptr %189, align 4
  %191 = icmp ugt i32 %190, 0
  call void @llvm.assume(i1 %191)
  %192 = load ptr, ptr %3, align 8
  %193 = load i32, ptr %192, align 4
  %194 = add i32 %193, -1
  store i32 %194, ptr %192, align 4
  %195 = icmp eq i32 %194, 0
  br i1 %195, label %196, label %204

196:                                              ; preds = %187
  %197 = load i8, ptr %6, align 1
  %198 = trunc i8 %197 to i1
  br i1 %198, label %199, label %201

199:                                              ; preds = %196
  %200 = load ptr, ptr %5, align 8
  call void @free(ptr noundef %200) #13
  br label %203

201:                                              ; preds = %196
  %202 = load ptr, ptr %5, align 8
  call void @_efree(ptr noundef %202) #13
  br label %203

203:                                              ; preds = %201, %199
  br label %204

204:                                              ; preds = %203, %187
  br label %205

205:                                              ; preds = %204, %174
  %206 = load ptr, ptr %7, align 8
  store ptr null, ptr %206, align 8
  br label %207

207:                                              ; preds = %205, %166
  %208 = load ptr, ptr %7, align 8
  %209 = getelementptr inbounds %struct.smart_str, ptr %208, i32 0, i32 1
  store i64 0, ptr %209, align 8
  br label %210

210:                                              ; preds = %207, %161
  br label %211

211:                                              ; preds = %210, %152, %39, %2
  ret void
}