; Function Attrs: nounwind uwtable
define void @php_std_post_handler(ptr nocapture noundef readnone %0, ptr noundef %1) local_unnamed_addr #0 {
  %3 = alloca %struct.post_var_data, align 8
  %4 = alloca [8192 x i8], align 16
  %5 = load ptr, ptr getelementptr inbounds (%struct._sapi_globals_struct, ptr @sapi_globals, i64 0, i32 1, i32 6), align 8
  %.not = icmp eq ptr %5, null
  br i1 %.not, label %57, label %6

6:                                                ; preds = %2
  %7 = tail call i32 @_php_stream_seek(ptr noundef nonnull %5, i64 noundef 0, i32 noundef 0) #17
  %8 = icmp eq i32 %7, 0
  br i1 %8, label %9, label %57

9:                                                ; preds = %6
  call void @llvm.memset.p0.i64(ptr noundef nonnull align 8 dereferenceable(48) %3, i8 0, i64 48, i1 false)
  %10 = getelementptr inbounds i8, ptr %3, i64 8
  br label %11

11:                                               ; preds = %43, %9
  %12 = call zeroext i1 @_php_stream_eof(ptr noundef nonnull %5) #17
  br i1 %12, label %.thread, label %13

13:                                               ; preds = %11
  call void @llvm.memset.p0.i64(ptr noundef nonnull align 16 dereferenceable(8192) %4, i8 0, i64 8192, i1 false)
  %14 = call i64 @_php_stream_read(ptr noundef nonnull %5, ptr noundef nonnull %4, i64 noundef 8192) #17
  %15 = icmp sgt i64 %14, 0
  br i1 %15, label %16, label %.thread

16:                                               ; preds = %13
  %17 = load ptr, ptr %3, align 8
  %.not66 = icmp eq ptr %17, null
  br i1 %.not66, label %23, label %18

18:                                               ; preds = %16
  %19 = getelementptr inbounds i8, ptr %17, i64 16
  %20 = load i64, ptr %19, align 8
  %21 = add i64 %20, %14
  %22 = load i64, ptr %10, align 8
  %.not67 = icmp ult i64 %21, %22
  br i1 %.not67, label %24, label %23

23:                                               ; preds = %16, %18
  %.0 = phi i64 [ %14, %16 ], [ %21, %18 ]
  call void @smart_str_erealloc(ptr noundef nonnull %3, i64 noundef %.0) #17
  %.pre = load ptr, ptr %3, align 8
  %.phi.trans.insert = getelementptr inbounds i8, ptr %.pre, i64 16
  %.pre76 = load i64, ptr %.phi.trans.insert, align 8
  br label %24

24:                                               ; preds = %23, %18
  %25 = phi i64 [ %.pre76, %23 ], [ %20, %18 ]
  %26 = phi ptr [ %.pre, %23 ], [ %17, %18 ]
  %.1 = phi i64 [ %.0, %23 ], [ %21, %18 ]
  %27 = getelementptr inbounds i8, ptr %26, i64 24
  %28 = getelementptr inbounds i8, ptr %27, i64 %25
  call void @llvm.memcpy.p0.p0.i64(ptr nonnull align 1 %28, ptr nonnull align 16 %4, i64 %14, i1 false)
  %29 = load ptr, ptr %3, align 8
  %30 = getelementptr inbounds i8, ptr %29, i64 16
  store i64 %.1, ptr %30, align 8
  %31 = call fastcc i32 @add_post_vars(ptr noundef %1, ptr noundef nonnull %3, i1 noundef zeroext false), !range !4
  %.not68 = icmp eq i32 %31, 0
  br i1 %.not68, label %43, label %32

32:                                               ; preds = %24
  %33 = load ptr, ptr %3, align 8
  %.not73 = icmp eq ptr %33, null
  br i1 %.not73, label %57, label %34

34:                                               ; preds = %32
  %35 = getelementptr inbounds i8, ptr %33, i64 4
  %36 = load i32, ptr %35, align 4
  %37 = and i32 %36, 64
  %.not74 = icmp eq i32 %37, 0
  br i1 %.not74, label %38, label %57

38:                                               ; preds = %34
  %39 = load i32, ptr %33, align 4
  %40 = icmp ne i32 %39, 0
  call void @llvm.assume(i1 %40)
  %41 = add i32 %39, -1
  store i32 %41, ptr %33, align 4
  %42 = icmp eq i32 %41, 0
  br i1 %42, label %.sink.split, label %57

43:                                               ; preds = %24
  %.not69 = icmp eq i64 %14, 8192
  br i1 %.not69, label %11, label %.thread

.thread:                                          ; preds = %13, %43, %11
  %44 = load ptr, ptr %3, align 8
  %.not70 = icmp eq ptr %44, null
  br i1 %.not70, label %57, label %45

45:                                               ; preds = %.thread
  %46 = call fastcc i32 @add_post_vars(ptr noundef %1, ptr noundef nonnull %3, i1 noundef zeroext true), !range !4
  %47 = load ptr, ptr %3, align 8
  %.not71 = icmp eq ptr %47, null
  br i1 %.not71, label %57, label %48

48:                                               ; preds = %45
  %49 = getelementptr inbounds i8, ptr %47, i64 4
  %50 = load i32, ptr %49, align 4
  %51 = and i32 %50, 64
  %.not72 = icmp eq i32 %51, 0
  br i1 %.not72, label %52, label %57

52:                                               ; preds = %48
  %53 = load i32, ptr %47, align 4
  %54 = icmp ne i32 %53, 0
  call void @llvm.assume(i1 %54)
  %55 = add i32 %53, -1
  store i32 %55, ptr %47, align 4
  %56 = icmp eq i32 %55, 0
  br i1 %56, label %.sink.split, label %57

.sink.split:                                      ; preds = %52, %38
  %.sink = phi ptr [ %33, %38 ], [ %47, %52 ]
  call void @_efree(ptr noundef nonnull %.sink) #17
  br label %57

57:                                               ; preds = %.sink.split, %45, %52, %48, %32, %38, %34, %.thread, %6, %2
  ret void
}